target datalayout = "e-m:e-p270:32:32-p271:32:32-p272:64:64-i64:64-i128:128-f80:128-n8:16:32:64-S128"
target triple = "x86_64-pc-linux-gnu"

%class.MdiChild = type <{ %class.QTextEdit, i32, i32, %class.QString, i8, i8, [6 x i8], %class.QString, %"class.std::unique_ptr", ptr, i8, [7 x i8], %class.QString, i8, [7 x i8] }>
%class.QTextEdit = type { %class.QAbstractScrollArea }
%class.QAbstractScrollArea = type { %class.QFrame }
%class.QFrame = type { %class.QWidget }
%class.QWidget = type { %class.QObject, %class.QPaintDevice.base, ptr }
%class.QObject = type { ptr, %class.QScopedPointer }
%class.QScopedPointer = type { ptr }
%class.QPaintDevice.base = type <{ ptr, i16 }>
%"class.std::unique_ptr" = type { %"struct.std::__uniq_ptr_data" }
%"struct.std::__uniq_ptr_data" = type { %"class.std::__uniq_ptr_impl" }
%"class.std::__uniq_ptr_impl" = type { %"class.std::tuple" }
%"class.std::tuple" = type { %"struct.std::_Tuple_impl" }
%"struct.std::_Tuple_impl" = type { %"struct.std::_Head_base.1" }
%"struct.std::_Head_base.1" = type { ptr }
%class.QString = type { %struct.QArrayDataPointer }
%struct.QArrayDataPointer = type { ptr, ptr, i64 }

; Function Attrs: mustprogress uwtable
define noundef zeroext i1 @_ZN8MdiChild4saveEv(ptr noundef nonnull align 8 dereferenceable(153) %0) #0 align 2 {
  %2 = alloca i1, align 1
  %3 = alloca ptr, align 8
  store ptr %0, ptr %3, align 8
  %4 = load ptr, ptr %3, align 8
  %5 = getelementptr inbounds %class.MdiChild, ptr %4, i32 0, i32 13
  %6 = load i8, ptr %5, align 8
  %7 = trunc i8 %6 to i1
  br i1 %7, label %8, label %10

8:                                                ; preds = %1
  %9 = call noundef zeroext i1 @_ZN8MdiChild6saveAsEv(ptr noundef nonnull align 8 dereferenceable(153) %4)
  store i1 %9, ptr %2, align 1
  br label %13

10:                                               ; preds = %1
  %11 = getelementptr inbounds %class.MdiChild, ptr %4, i32 0, i32 12
  %12 = call noundef zeroext i1 @_ZN8MdiChild8saveFileERK7QString(ptr noundef nonnull align 8 dereferenceable(153) %4, ptr noundef nonnull align 8 dereferenceable(24) %11)
  store i1 %12, ptr %2, align 1
  br label %13

13:                                               ; preds = %10, %8
  %14 = load i1, ptr %2, align 1
  ret i1 %14
}