; Function Attrs: mustprogress uwtable
define noundef zeroext i1 @_ZN8MdiChild4saveEv(ptr noundef nonnull align 8 dereferenceable(153) %0) local_unnamed_addr #0 align 2 {
  %2 = getelementptr inbounds i8, ptr %0, i64 152
  %3 = load i8, ptr %2, align 8
  %4 = and i8 %3, 1
  %.not = icmp eq i8 %4, 0
  br i1 %.not, label %7, label %5

5:                                                ; preds = %1
  %6 = tail call noundef zeroext i1 @_ZN8MdiChild6saveAsEv(ptr noundef nonnull align 8 dereferenceable(153) %0)
  br label %10

7:                                                ; preds = %1
  %8 = getelementptr inbounds i8, ptr %0, i64 128
  %9 = tail call noundef zeroext i1 @_ZN8MdiChild8saveFileERK7QString(ptr noundef nonnull align 8 dereferenceable(153) %0, ptr noundef nonnull align 8 dereferenceable(24) %8)
  br label %10

10:                                               ; preds = %7, %5
  %.0 = phi i1 [ %6, %5 ], [ %9, %7 ]
  ret i1 %.0
}